target datalayout = "e-m:e-p270:32:32-p271:32:32-p272:64:64-i64:64-i128:128-f80:128-n8:16:32:64-S128"
target triple = "x86_64-unknown-linux-gnu"

%class.skip_tactic.base = type { %class.tactic.base }
%class.tactic.base = type <{ %"class.user_propagator::core", i32 }>
%"class.user_propagator::core" = type { ptr }
%class.probe_value_tactic = type <{ %class.skip_tactic.base, [4 x i8], ptr, ptr, ptr, i8, [7 x i8] }>
%class.tactic = type <{ %"class.user_propagator::core", i32, [4 x i8] }>
%class.probe = type <{ ptr, i32, [4 x i8] }>

@_ZTV11skip_tactic = external unnamed_addr constant { [25 x ptr] }, align 8

; Function Attrs: mustprogress nounwind uwtable
define linkonce_odr hidden void @_ZN15user_propagator4coreD2Ev(ptr noundef nonnull align 8 dereferenceable(8) %this) unnamed_addr #5 comdat align 2 {
entry:
  %this.addr = alloca ptr, align 8
  store ptr %this, ptr %this.addr, align 8
  ret void
}

; Function Attrs: mustprogress nounwind uwtable
define linkonce_odr hidden void @_ZN15user_propagator4coreC2Ev(ptr noundef nonnull align 8 dereferenceable(8) %this) unnamed_addr #5 comdat align 2 {
entry:
  %this.addr = alloca ptr, align 8
  store ptr %this, ptr %this.addr, align 8
  %this1 = load ptr, ptr %this.addr, align 8
  store ptr getelementptr inbounds ({ [14 x ptr] }, ptr @_ZTVN15user_propagator4coreE, i32 0, i32 0, i32 2), ptr %this1, align 8
  ret void
}

; Function Attrs: mustprogress nounwind uwtable
define linkonce_odr hidden void @_ZN6tacticD2Ev(ptr noundef nonnull align 8 dereferenceable(12) %this) unnamed_addr #5 comdat align 2 {
entry:
  %this.addr = alloca ptr, align 8
  store ptr %this, ptr %this.addr, align 8
  %this1 = load ptr, ptr %this.addr, align 8
  call void @_ZN15user_propagator4coreD2Ev(ptr noundef nonnull align 8 dereferenceable(8) %this1) #3
  ret void
}

; Function Attrs: mustprogress nounwind uwtable
define linkonce_odr hidden void @_ZN6tacticC2Ev(ptr noundef nonnull align 8 dereferenceable(12) %this) unnamed_addr #5 comdat align 2 {
entry:
  %this.addr = alloca ptr, align 8
  store ptr %this, ptr %this.addr, align 8
  %this1 = load ptr, ptr %this.addr, align 8
  call void @_ZN15user_propagator4coreC2Ev(ptr noundef nonnull align 8 dereferenceable(8) %this1) #3
  store ptr getelementptr inbounds ({ [25 x ptr] }, ptr @_ZTV6tactic, i32 0, i32 0, i32 2), ptr %this1, align 8
  %m_ref_count = getelementptr inbounds %class.tactic, ptr %this1, i32 0, i32 1
  store i32 0, ptr %m_ref_count, align 8
  ret void
}

; Function Attrs: mustprogress nounwind uwtable
define linkonce_odr hidden void @_ZN11skip_tacticD2Ev(ptr noundef nonnull align 8 dereferenceable(12) %this) unnamed_addr #5 comdat align 2 {
entry:
  %this.addr = alloca ptr, align 8
  store ptr %this, ptr %this.addr, align 8
  %this1 = load ptr, ptr %this.addr, align 8
  call void @_ZN6tacticD2Ev(ptr noundef nonnull align 8 dereferenceable(12) %this1) #3
  ret void
}

; Function Attrs: mustprogress nounwind uwtable
define linkonce_odr hidden void @_ZN5probe7inc_refEv(ptr noundef nonnull align 8 dereferenceable(12) %this) #5 comdat align 2 {
entry:
  %this.addr = alloca ptr, align 8
  store ptr %this, ptr %this.addr, align 8
  %this1 = load ptr, ptr %this.addr, align 8
  %m_ref_count = getelementptr inbounds %class.probe, ptr %this1, i32 0, i32 1
  %0 = load i32, ptr %m_ref_count, align 8
  %inc = add i32 %0, 1
  store i32 %inc, ptr %m_ref_count, align 8
  ret void
}

; Function Attrs: mustprogress uwtable
define linkonce_odr hidden void @_ZN11skip_tacticC2Ev(ptr noundef nonnull align 8 dereferenceable(12) %this) unnamed_addr #4 comdat align 2 {
entry:
  %this.addr = alloca ptr, align 8
  store ptr %this, ptr %this.addr, align 8
  %this1 = load ptr, ptr %this.addr, align 8
  call void @_ZN6tacticC2Ev(ptr noundef nonnull align 8 dereferenceable(12) %this1)
  store ptr getelementptr inbounds ({ [25 x ptr] }, ptr @_ZTV11skip_tactic, i32 0, i32 0, i32 2), ptr %this1, align 8
  ret void
}

; Function Attrs: mustprogress uwtable
define linkonce_odr hidden void @_ZN18probe_value_tacticC2ER11cmd_contextPKcP5probeb(ptr noundef nonnull align 8 dereferenceable(41) %this, ptr noundef nonnull align 8 dereferenceable(872) %ctx, ptr noundef %msg, ptr noundef %p, i1 noundef zeroext %newline) unnamed_addr #4 comdat align 2 personality ptr @__gxx_personality_v0 {
entry:
  %this.addr = alloca ptr, align 8
  %ctx.addr = alloca ptr, align 8
  %msg.addr = alloca ptr, align 8
  %p.addr = alloca ptr, align 8
  %newline.addr = alloca i8, align 1
  %exn.slot = alloca ptr, align 8
  %ehselector.slot = alloca i32, align 4
  store ptr %this, ptr %this.addr, align 8
  store ptr %ctx, ptr %ctx.addr, align 8
  store ptr %msg, ptr %msg.addr, align 8
  store ptr %p, ptr %p.addr, align 8
  %frombool = zext i1 %newline to i8
  store i8 %frombool, ptr %newline.addr, align 1
  %this1 = load ptr, ptr %this.addr, align 8
  call void @_ZN11skip_tacticC2Ev(ptr noundef nonnull align 8 dereferenceable(12) %this1)
  store ptr getelementptr inbounds ({ [25 x ptr] }, ptr @_ZTV18probe_value_tactic, i32 0, i32 0, i32 2), ptr %this1, align 8
  %m_ctx = getelementptr inbounds %class.probe_value_tactic, ptr %this1, i32 0, i32 2
  %0 = load ptr, ptr %ctx.addr, align 8
  store ptr %0, ptr %m_ctx, align 8
  %m_msg = getelementptr inbounds %class.probe_value_tactic, ptr %this1, i32 0, i32 3
  %1 = load ptr, ptr %msg.addr, align 8
  store ptr %1, ptr %m_msg, align 8
  %m_p = getelementptr inbounds %class.probe_value_tactic, ptr %this1, i32 0, i32 4
  %2 = load ptr, ptr %p.addr, align 8
  store ptr %2, ptr %m_p, align 8
  %m_newline = getelementptr inbounds %class.probe_value_tactic, ptr %this1, i32 0, i32 5
  %3 = load i8, ptr %newline.addr, align 1
  %tobool = trunc i8 %3 to i1
  %frombool2 = zext i1 %tobool to i8
  store i8 %frombool2, ptr %m_newline, align 8
  %m_p3 = getelementptr inbounds %class.probe_value_tactic, ptr %this1, i32 0, i32 4
  %4 = load ptr, ptr %m_p3, align 8
  invoke void @_ZN5probe7inc_refEv(ptr noundef nonnull align 8 dereferenceable(12) %4)
          to label %invoke.cont unwind label %lpad

invoke.cont:                                      ; preds = %entry
  ret void

lpad:                                             ; preds = %entry
  %5 = landingpad { ptr, i32 }
          cleanup
  %6 = extractvalue { ptr, i32 } %5, 0
  store ptr %6, ptr %exn.slot, align 8
  %7 = extractvalue { ptr, i32 } %5, 1
  store i32 %7, ptr %ehselector.slot, align 4
  call void @_ZN11skip_tacticD2Ev(ptr noundef nonnull align 8 dereferenceable(12) %this1) #3
  br label %eh.resume

eh.resume:                                        ; preds = %lpad
  %exn = load ptr, ptr %exn.slot, align 8
  %sel = load i32, ptr %ehselector.slot, align 4
  %lpad.val = insertvalue { ptr, i32 } poison, ptr %exn, 0
  %lpad.val4 = insertvalue { ptr, i32 } %lpad.val, i32 %sel, 1
  resume { ptr, i32 } %lpad.val4
}

; Function Attrs: mustprogress uwtable
define hidden noundef ptr @_Z21mk_probe_value_tacticR11cmd_contextPKcP5probeb(ptr noundef nonnull align 8 dereferenceable(872) %ctx, ptr noundef %msg, ptr noundef %p, i1 noundef zeroext %newline) #4 {
entry:
  %ctx.addr = alloca ptr, align 8
  %msg.addr = alloca ptr, align 8
  %p.addr = alloca ptr, align 8
  %newline.addr = alloca i8, align 1
  store ptr %ctx, ptr %ctx.addr, align 8
  store ptr %msg, ptr %msg.addr, align 8
  store ptr %p, ptr %p.addr, align 8
  %frombool = zext i1 %newline to i8
  store i8 %frombool, ptr %newline.addr, align 1
  %call = call noalias noundef ptr @_ZN6memory8allocateEm(i64 noundef 48)
  %0 = load ptr, ptr %ctx.addr, align 8
  %1 = load ptr, ptr %msg.addr, align 8
  %2 = load ptr, ptr %p.addr, align 8
  %3 = load i8, ptr %newline.addr, align 1
  %tobool = trunc i8 %3 to i1
  call void @_ZN18probe_value_tacticC2ER11cmd_contextPKcP5probeb(ptr noundef nonnull align 8 dereferenceable(41) %call, ptr noundef nonnull align 8 dereferenceable(872) %0, ptr noundef %1, ptr noundef %2, i1 noundef zeroext %tobool)
  ret ptr %call
}