; Function Attrs: mustprogress uwtable
define hidden noalias noundef ptr @_Z21mk_probe_value_tacticR11cmd_contextPKcP5probeb(ptr noundef nonnull align 8 dereferenceable(872) %ctx, ptr noundef %msg, ptr noundef %p, i1 noundef zeroext %newline) local_unnamed_addr #3 personality ptr @__gxx_personality_v0 {
entry:
  %call = tail call noalias noundef ptr @_ZN6memory8allocateEm(i64 noundef 48)
  %frombool.i = zext i1 %newline to i8
  %m_ref_count.i.i.i = getelementptr inbounds i8, ptr %call, i64 8
  store i32 0, ptr %m_ref_count.i.i.i, align 8
  store ptr getelementptr inbounds ({ [25 x ptr] }, ptr @_ZTV18probe_value_tactic, i64 0, i32 0, i64 2), ptr %call, align 8
  %m_ctx.i = getelementptr inbounds i8, ptr %call, i64 16
  store ptr %ctx, ptr %m_ctx.i, align 8
  %m_msg.i = getelementptr inbounds i8, ptr %call, i64 24
  store ptr %msg, ptr %m_msg.i, align 8
  %m_p.i = getelementptr inbounds i8, ptr %call, i64 32
  store ptr %p, ptr %m_p.i, align 8
  %m_newline.i = getelementptr inbounds i8, ptr %call, i64 40
  store i8 %frombool.i, ptr %m_newline.i, align 8
  %m_ref_count.i.i = getelementptr inbounds i8, ptr %p, i64 8
  %0 = load i32, ptr %m_ref_count.i.i, align 8
  %inc.i.i = add i32 %0, 1
  store i32 %inc.i.i, ptr %m_ref_count.i.i, align 8
  ret ptr %call
}